; Function Attrs: nounwind uwtable
define i32 @If_CutSopBalanceEvalIntInt(ptr noundef readonly captures(none) %0, i32 noundef %1, ptr noundef readonly captures(none) %2, ptr noundef %3, i32 noundef %4, ptr noundef captures(none) %5) local_unnamed_addr #2 {
  %7 = alloca [15 x i32], align 16
  %8 = alloca i32, align 4
  store i32 0, ptr %8, align 4
  %.not = icmp eq ptr %3, null
  br i1 %.not, label %.thread, label %.preheader

.preheader:                                       ; preds = %6
  %9 = icmp sgt i32 %1, 0
  br i1 %9, label %.lr.ph.preheader, label %._crit_edge

.lr.ph.preheader:                                 ; preds = %.preheader
  %wide.trip.count = zext nneg i32 %1 to i64
  br label %.lr.ph

.thread:                                          ; preds = %6
  %10 = call i32 @If_CutSopBalanceEvalInt(ptr noundef %0, ptr noundef %2, ptr noundef nonnull %7, ptr noundef null, ptr noundef nonnull %8, i32 noundef %1, ptr noundef %5)
  br label %50

.lr.ph:                                           ; preds = %.lr.ph.preheader, %.lr.ph
  %indvars.iv = phi i64 [ 0, %.lr.ph.preheader ], [ %indvars.iv.next, %.lr.ph ]
  %11 = getelementptr inbounds nuw [15 x i32], ptr %7, i64 0, i64 %indvars.iv
  %indvars.iv.tr = trunc i64 %indvars.iv to i32
  %12 = shl i32 %indvars.iv.tr, 1
  store i32 %12, ptr %11, align 4
  %indvars.iv.next = add nuw nsw i64 %indvars.iv, 1
  %exitcond.not = icmp eq i64 %indvars.iv.next, %wide.trip.count
  br i1 %exitcond.not, label %._crit_edge, label %.lr.ph, !llvm.loop !23

._crit_edge:                                      ; preds = %.lr.ph, %.preheader
  %13 = call i32 @If_CutSopBalanceEvalInt(ptr noundef %0, ptr noundef %2, ptr noundef nonnull %7, ptr noundef nonnull %3, ptr noundef nonnull %8, i32 noundef %1, ptr noundef %5)
  %14 = icmp eq i32 %13, -1
  br i1 %14, label %50, label %15

15:                                               ; preds = %._crit_edge
  %16 = load i32, ptr %8, align 4
  %17 = and i32 %16, 1
  %18 = xor i32 %17, %4
  %19 = getelementptr inbounds nuw i8, ptr %3, i64 4
  %20 = load i32, ptr %19, align 4
  %21 = load i32, ptr %3, align 8
  %22 = icmp eq i32 %20, %21
  br i1 %22, label %23, label %.Vec_IntGrow.exit10_crit_edge.i

.Vec_IntGrow.exit10_crit_edge.i:                  ; preds = %15
  %.phi.trans.insert.i = getelementptr inbounds nuw i8, ptr %3, i64 8
  %.pre.i = load ptr, ptr %.phi.trans.insert.i, align 8
  br label %Vec_IntPush.exit

23:                                               ; preds = %15
  %24 = icmp slt i32 %20, 16
  br i1 %24, label %25, label %33

25:                                               ; preds = %23
  %26 = getelementptr inbounds nuw i8, ptr %3, i64 8
  %27 = load ptr, ptr %26, align 8
  %.not9.i.i = icmp eq ptr %27, null
  br i1 %.not9.i.i, label %30, label %28

28:                                               ; preds = %25
  %29 = tail call dereferenceable_or_null(64) ptr @realloc(ptr noundef nonnull %27, i64 noundef 64) #12
  br label %Vec_IntGrow.exit.i

30:                                               ; preds = %25
  %31 = tail call noalias dereferenceable_or_null(64) ptr @malloc(i64 noundef 64) #13
  br label %Vec_IntGrow.exit.i

Vec_IntGrow.exit.i:                               ; preds = %30, %28
  %32 = phi ptr [ %29, %28 ], [ %31, %30 ]
  store ptr %32, ptr %26, align 8
  store i32 16, ptr %3, align 8
  br label %Vec_IntPush.exit

33:                                               ; preds = %23
  %34 = shl nuw nsw i32 %20, 1
  %35 = getelementptr inbounds nuw i8, ptr %3, i64 8
  %36 = load ptr, ptr %35, align 8
  %.not9.i9.i = icmp eq ptr %36, null
  %37 = zext nneg i32 %34 to i64
  %38 = shl nuw nsw i64 %37, 2
  br i1 %.not9.i9.i, label %41, label %39

39:                                               ; preds = %33
  %40 = tail call ptr @realloc(ptr noundef nonnull %36, i64 noundef %38) #12
  br label %43

41:                                               ; preds = %33
  %42 = tail call noalias ptr @malloc(i64 noundef %38) #13
  br label %43

43:                                               ; preds = %41, %39
  %44 = phi ptr [ %40, %39 ], [ %42, %41 ]
  store ptr %44, ptr %35, align 8
  store i32 %34, ptr %3, align 8
  br label %Vec_IntPush.exit

Vec_IntPush.exit:                                 ; preds = %.Vec_IntGrow.exit10_crit_edge.i, %Vec_IntGrow.exit.i, %43
  %45 = phi ptr [ %.pre.i, %.Vec_IntGrow.exit10_crit_edge.i ], [ %44, %43 ], [ %32, %Vec_IntGrow.exit.i ]
  %46 = load i32, ptr %19, align 4
  %47 = add nsw i32 %46, 1
  store i32 %47, ptr %19, align 4
  %48 = sext i32 %46 to i64
  %49 = getelementptr inbounds i32, ptr %45, i64 %48
  store i32 %18, ptr %49, align 4
  br label %50

50:                                               ; preds = %.thread, %._crit_edge, %Vec_IntPush.exit
  %phi.call22 = phi i32 [ %10, %.thread ], [ -1, %._crit_edge ], [ %13, %Vec_IntPush.exit ]
  ret i32 %phi.call22
}